target datalayout = "e-m:e-p270:32:32-p271:32:32-p272:64:64-i64:64-i128:128-f80:128-n8:16:32:64-S128"
target triple = "x86_64-pc-linux-gnu"

%"class.google::protobuf::StringPiece" = type { ptr, i64 }

; Function Attrs: mustprogress nounwind uwtable
define linkonce_odr void @_ZN6google8protobuf11StringPieceC2EPKcl(ptr noundef nonnull align 8 dereferenceable(16) %0, ptr noundef %1, i64 noundef %2) unnamed_addr #5 comdat align 2 {
  %4 = alloca ptr, align 8
  %5 = alloca ptr, align 8
  %6 = alloca i64, align 8
  store ptr %0, ptr %4, align 8
  store ptr %1, ptr %5, align 8
  store i64 %2, ptr %6, align 8
  %7 = load ptr, ptr %4, align 8
  %8 = getelementptr inbounds %"class.google::protobuf::StringPiece", ptr %7, i32 0, i32 0
  %9 = load ptr, ptr %5, align 8
  store ptr %9, ptr %8, align 8
  %10 = getelementptr inbounds %"class.google::protobuf::StringPiece", ptr %7, i32 0, i32 1
  %11 = load i64, ptr %6, align 8
  store i64 %11, ptr %10, align 8
  ret void
}

; Function Attrs: mustprogress nounwind uwtable
define linkonce_odr noundef i64 @_ZNK6google8protobuf11StringPiece6lengthEv(ptr noundef nonnull align 8 dereferenceable(16) %0) #5 comdat align 2 {
  %2 = alloca ptr, align 8
  store ptr %0, ptr %2, align 8
  %3 = load ptr, ptr %2, align 8
  %4 = getelementptr inbounds %"class.google::protobuf::StringPiece", ptr %3, i32 0, i32 1
  %5 = load i64, ptr %4, align 8
  ret i64 %5
}

; Function Attrs: mustprogress nounwind uwtable
define linkonce_odr noundef ptr @_ZNK6google8protobuf11StringPiece4dataEv(ptr noundef nonnull align 8 dereferenceable(16) %0) #5 comdat align 2 {
  %2 = alloca ptr, align 8
  store ptr %0, ptr %2, align 8
  %3 = load ptr, ptr %2, align 8
  %4 = getelementptr inbounds %"class.google::protobuf::StringPiece", ptr %3, i32 0, i32 0
  %5 = load ptr, ptr %4, align 8
  ret ptr %5
}

; Function Attrs: mustprogress uwtable
define noundef ptr @_ZN6google8protobuf8internal29UTF8CoerceToStructurallyValidENS0_11StringPieceEPcc(ptr %0, i64 %1, ptr noundef %2, i8 noundef signext %3) #4 {
  %5 = alloca ptr, align 8
  %6 = alloca %"class.google::protobuf::StringPiece", align 8
  %7 = alloca ptr, align 8
  %8 = alloca i8, align 1
  %9 = alloca ptr, align 8
  %10 = alloca i32, align 4
  %11 = alloca i32, align 4
  %12 = alloca %"class.google::protobuf::StringPiece", align 8
  %13 = alloca ptr, align 8
  %14 = alloca ptr, align 8
  %15 = alloca ptr, align 8
  %16 = alloca %"class.google::protobuf::StringPiece", align 8
  %17 = alloca %"class.google::protobuf::StringPiece", align 8
  %18 = getelementptr inbounds { ptr, i64 }, ptr %6, i32 0, i32 0
  store ptr %0, ptr %18, align 8
  %19 = getelementptr inbounds { ptr, i64 }, ptr %6, i32 0, i32 1
  store i64 %1, ptr %19, align 8
  store ptr %2, ptr %7, align 8
  store i8 %3, ptr %8, align 1
  %20 = call noundef ptr @_ZNK6google8protobuf11StringPiece4dataEv(ptr noundef nonnull align 8 dereferenceable(16) %6)
  store ptr %20, ptr %9, align 8
  %21 = call noundef i64 @_ZNK6google8protobuf11StringPiece6lengthEv(ptr noundef nonnull align 8 dereferenceable(16) %6)
  %22 = trunc i64 %21 to i32
  store i32 %22, ptr %10, align 4
  call void @llvm.memcpy.p0.p0.i64(ptr align 8 %12, ptr align 8 %6, i64 16, i1 false)
  %23 = getelementptr inbounds { ptr, i64 }, ptr %12, i32 0, i32 0
  %24 = load ptr, ptr %23, align 8
  %25 = getelementptr inbounds { ptr, i64 }, ptr %12, i32 0, i32 1
  %26 = load i64, ptr %25, align 8
  %27 = call noundef i32 @_ZN6google8protobuf8internal24UTF8SpnStructurallyValidENS0_11StringPieceE(ptr %24, i64 %26)
  store i32 %27, ptr %11, align 4
  %28 = load i32, ptr %11, align 4
  %29 = load i32, ptr %10, align 4
  %30 = icmp eq i32 %28, %29
  br i1 %30, label %31, label %33

31:                                               ; preds = %4
  %32 = load ptr, ptr %9, align 8
  store ptr %32, ptr %5, align 8
  br label %90

33:                                               ; preds = %4
  %34 = load ptr, ptr %9, align 8
  store ptr %34, ptr %13, align 8
  %35 = load ptr, ptr %9, align 8
  %36 = load i32, ptr %10, align 4
  %37 = sext i32 %36 to i64
  %38 = getelementptr inbounds i8, ptr %35, i64 %37
  store ptr %38, ptr %14, align 8
  %39 = load ptr, ptr %7, align 8
  store ptr %39, ptr %15, align 8
  %40 = load ptr, ptr %15, align 8
  %41 = load ptr, ptr %13, align 8
  %42 = load i32, ptr %11, align 4
  %43 = sext i32 %42 to i64
  call void @llvm.memmove.p0.p0.i64(ptr align 1 %40, ptr align 1 %41, i64 %43, i1 false)
  %44 = load i32, ptr %11, align 4
  %45 = load ptr, ptr %13, align 8
  %46 = sext i32 %44 to i64
  %47 = getelementptr inbounds i8, ptr %45, i64 %46
  store ptr %47, ptr %13, align 8
  %48 = load i32, ptr %11, align 4
  %49 = load ptr, ptr %15, align 8
  %50 = sext i32 %48 to i64
  %51 = getelementptr inbounds i8, ptr %49, i64 %50
  store ptr %51, ptr %15, align 8
  br label %52

52:                                               ; preds = %56, %33
  %53 = load ptr, ptr %13, align 8
  %54 = load ptr, ptr %14, align 8
  %55 = icmp ult ptr %53, %54
  br i1 %55, label %56, label %87

56:                                               ; preds = %52
  %57 = load i8, ptr %8, align 1
  %58 = load ptr, ptr %15, align 8
  %59 = getelementptr inbounds i8, ptr %58, i64 0
  store i8 %57, ptr %59, align 1
  %60 = load ptr, ptr %13, align 8
  %61 = getelementptr inbounds i8, ptr %60, i32 1
  store ptr %61, ptr %13, align 8
  %62 = load ptr, ptr %15, align 8
  %63 = getelementptr inbounds i8, ptr %62, i32 1
  store ptr %63, ptr %15, align 8
  %64 = load ptr, ptr %13, align 8
  %65 = load ptr, ptr %14, align 8
  %66 = load ptr, ptr %13, align 8
  %67 = ptrtoint ptr %65 to i64
  %68 = ptrtoint ptr %66 to i64
  %69 = sub i64 %67, %68
  call void @_ZN6google8protobuf11StringPieceC2EPKcl(ptr noundef nonnull align 8 dereferenceable(16) %16, ptr noundef %64, i64 noundef %69)
  call void @llvm.memcpy.p0.p0.i64(ptr align 8 %17, ptr align 8 %16, i64 16, i1 false)
  %70 = getelementptr inbounds { ptr, i64 }, ptr %17, i32 0, i32 0
  %71 = load ptr, ptr %70, align 8
  %72 = getelementptr inbounds { ptr, i64 }, ptr %17, i32 0, i32 1
  %73 = load i64, ptr %72, align 8
  %74 = call noundef i32 @_ZN6google8protobuf8internal24UTF8SpnStructurallyValidENS0_11StringPieceE(ptr %71, i64 %73)
  store i32 %74, ptr %11, align 4
  %75 = load ptr, ptr %15, align 8
  %76 = load ptr, ptr %13, align 8
  %77 = load i32, ptr %11, align 4
  %78 = sext i32 %77 to i64
  call void @llvm.memmove.p0.p0.i64(ptr align 1 %75, ptr align 1 %76, i64 %78, i1 false)
  %79 = load i32, ptr %11, align 4
  %80 = load ptr, ptr %13, align 8
  %81 = sext i32 %79 to i64
  %82 = getelementptr inbounds i8, ptr %80, i64 %81
  store ptr %82, ptr %13, align 8
  %83 = load i32, ptr %11, align 4
  %84 = load ptr, ptr %15, align 8
  %85 = sext i32 %83 to i64
  %86 = getelementptr inbounds i8, ptr %84, i64 %85
  store ptr %86, ptr %15, align 8
  br label %52, !llvm.loop !14

87:                                               ; preds = %52
  br label %88

88:                                               ; preds = %87
  %89 = load ptr, ptr %7, align 8
  store ptr %89, ptr %5, align 8
  br label %90

90:                                               ; preds = %88, %31
  %91 = load ptr, ptr %5, align 8
  ret ptr %91
}