; Function Attrs: mustprogress nofree norecurse nosync nounwind memory(readwrite, inaccessiblemem: none) uwtable
define noundef ptr @_ZN6google8protobuf8internal29UTF8CoerceToStructurallyValidENS0_11StringPieceEPcc(ptr %0, i64 %1, ptr noundef writeonly %2, i8 noundef signext %3) local_unnamed_addr #4 {
  %5 = trunc i64 %1 to i32
  %6 = tail call noundef i32 @_ZN6google8protobuf8internal24UTF8SpnStructurallyValidENS0_11StringPieceE(ptr %0, i64 %1)
  %7 = icmp eq i32 %6, %5
  br i1 %7, label %.loopexit, label %8

8:                                                ; preds = %4
  %sext = shl i64 %1, 32
  %9 = ashr exact i64 %sext, 32
  %10 = getelementptr inbounds i8, ptr %0, i64 %9
  %11 = sext i32 %6 to i64
  tail call void @llvm.memmove.p0.p0.i64(ptr align 1 %2, ptr align 1 %0, i64 %11, i1 false)
  %12 = icmp sgt i64 %9, %11
  br i1 %12, label %.lr.ph, label %.loopexit

.lr.ph:                                           ; preds = %8
  %13 = getelementptr inbounds i8, ptr %0, i64 %11
  %14 = getelementptr inbounds i8, ptr %2, i64 %11
  %15 = ptrtoint ptr %10 to i64
  br label %16

16:                                               ; preds = %.lr.ph, %16
  %.03341 = phi ptr [ %14, %.lr.ph ], [ %24, %16 ]
  %.03440 = phi ptr [ %13, %.lr.ph ], [ %23, %16 ]
  store i8 %3, ptr %.03341, align 1
  %17 = getelementptr inbounds i8, ptr %.03440, i64 1
  %18 = getelementptr inbounds i8, ptr %.03341, i64 1
  %19 = ptrtoint ptr %17 to i64
  %20 = sub i64 %15, %19
  %21 = tail call noundef i32 @_ZN6google8protobuf8internal24UTF8SpnStructurallyValidENS0_11StringPieceE(ptr nonnull %17, i64 %20)
  %22 = sext i32 %21 to i64
  tail call void @llvm.memmove.p0.p0.i64(ptr nonnull align 1 %18, ptr nonnull align 1 %17, i64 %22, i1 false)
  %23 = getelementptr inbounds i8, ptr %17, i64 %22
  %24 = getelementptr inbounds i8, ptr %18, i64 %22
  %25 = icmp ult ptr %23, %10
  br i1 %25, label %16, label %.loopexit, !llvm.loop !14

.loopexit:                                        ; preds = %16, %8, %4
  %.0 = phi ptr [ %0, %4 ], [ %2, %8 ], [ %2, %16 ]
  ret ptr %.0
}